; Function Attrs: nofree norecurse nosync nounwind memory(argmem: readwrite) uwtable
define internal void @SDL_Convert61ToMono(ptr noundef writeonly captures(none) %0, ptr noundef readonly captures(none) %1, i32 noundef %2) #5 {
  %.not14 = icmp eq i32 %2, 0
  br i1 %.not14, label %._crit_edge, label %.lr.ph

.lr.ph:                                           ; preds = %3, %.lr.ph
  %.017 = phi i32 [ %24, %.lr.ph ], [ %2, %3 ]
  %.01216 = phi ptr [ %26, %.lr.ph ], [ %0, %3 ]
  %.01315 = phi ptr [ %25, %.lr.ph ], [ %1, %3 ]
  %4 = load float, ptr %.01315, align 4
  %5 = getelementptr inbounds nuw i8, ptr %.01315, i64 4
  %6 = load float, ptr %5, align 4
  %7 = fmul float %6, 0x3FC2528140000000
  %8 = tail call float @llvm.fmuladd.f32(float %4, float 0x3FC2528140000000, float %7)
  %9 = getelementptr inbounds nuw i8, ptr %.01315, i64 8
  %10 = load float, ptr %9, align 4
  %11 = tail call float @llvm.fmuladd.f32(float %10, float 0x3FC2528140000000, float %8)
  %12 = getelementptr inbounds nuw i8, ptr %.01315, i64 12
  %13 = load float, ptr %12, align 4
  %14 = tail call float @llvm.fmuladd.f32(float %13, float 0x3FC24924A0000000, float %11)
  %15 = getelementptr inbounds nuw i8, ptr %.01315, i64 16
  %16 = load float, ptr %15, align 4
  %17 = tail call float @llvm.fmuladd.f32(float %16, float 0x3FC2528140000000, float %14)
  %18 = getelementptr inbounds nuw i8, ptr %.01315, i64 20
  %19 = load float, ptr %18, align 4
  %20 = tail call float @llvm.fmuladd.f32(float %19, float 0x3FC2528140000000, float %17)
  %21 = getelementptr inbounds nuw i8, ptr %.01315, i64 24
  %22 = load float, ptr %21, align 4
  %23 = tail call float @llvm.fmuladd.f32(float %22, float 0x3FC2528140000000, float %20)
  store float %23, ptr %.01216, align 4
  %24 = add nsw i32 %.017, -1
  %25 = getelementptr inbounds nuw i8, ptr %.01315, i64 28
  %26 = getelementptr inbounds nuw i8, ptr %.01216, i64 4
  %.not = icmp eq i32 %24, 0
  br i1 %.not, label %._crit_edge, label %.lr.ph, !llvm.loop !92

._crit_edge:                                      ; preds = %.lr.ph, %3
  ret void
}